target datalayout = "e-m:e-p270:32:32-p271:32:32-p272:64:64-i64:64-i128:128-f80:128-n8:16:32:64-S128"
target triple = "x86_64-pc-linux-gnu"

%struct._typeobject = type { %struct.PyVarObject, ptr, i64, i64, ptr, i64, ptr, ptr, ptr, ptr, ptr, ptr, ptr, ptr, ptr, ptr, ptr, ptr, ptr, i64, ptr, ptr, ptr, ptr, i64, ptr, ptr, ptr, ptr, ptr, ptr, ptr, ptr, ptr, i64, ptr, ptr, ptr, ptr, ptr, ptr, ptr, ptr, ptr, ptr, ptr, i32, ptr, ptr, i8, i16 }
%struct.PyVarObject = type { %struct._object, i64 }
%struct._object = type { %union.anon, ptr }
%union.anon = type { i64 }
%struct.PyTupleObject = type { %struct.PyVarObject, [1 x ptr] }
%struct.PyModuleObject = type { %struct._object, ptr, ptr, ptr, ptr, ptr }
%struct.PyDictObject = type { %struct._object, i64, i64, ptr, ptr }

@_Py_NoneStruct = external global %struct._object, align 8
@.str.32 = private unnamed_addr constant [7 x i8] c"module\00", align 1
@.str.52 = private unnamed_addr constant [16 x i8] c"argument 'name'\00", align 1
@.str.53 = private unnamed_addr constant [4 x i8] c"str\00", align 1

; Function Attrs: inlinehint nounwind uwtable
define internal i64 @Py_SIZE(ptr noundef %0) #1 {
  %2 = alloca ptr, align 8
  store ptr %0, ptr %2, align 8, !tbaa !4
  %3 = load ptr, ptr %2, align 8, !tbaa !4
  %4 = getelementptr inbounds nuw %struct.PyVarObject, ptr %3, i32 0, i32 1
  %5 = load i64, ptr %4, align 8, !tbaa !241
  ret i64 %5
}

; Function Attrs: nounwind uwtable
define internal i32 @module___init___impl(ptr noundef %0, ptr noundef %1, ptr noundef %2) #0 {
  %4 = alloca ptr, align 8
  %5 = alloca ptr, align 8
  %6 = alloca ptr, align 8
  store ptr %0, ptr %4, align 8, !tbaa !9
  store ptr %1, ptr %5, align 8, !tbaa !4
  store ptr %2, ptr %6, align 8, !tbaa !4
  %7 = load ptr, ptr %4, align 8, !tbaa !9
  %8 = load ptr, ptr %4, align 8, !tbaa !9
  %9 = getelementptr inbounds nuw %struct.PyModuleObject, ptr %8, i32 0, i32 1
  %10 = load ptr, ptr %9, align 8, !tbaa !28
  %11 = load ptr, ptr %5, align 8, !tbaa !4
  %12 = load ptr, ptr %6, align 8, !tbaa !4
  %13 = call i32 @module_init_dict(ptr noundef %7, ptr noundef %10, ptr noundef %11, ptr noundef %12)
  ret i32 %13
}

; Function Attrs: inlinehint nounwind uwtable
define internal i32 @PyType_HasFeature(ptr noundef %0, i64 noundef %1) #1 {
  %3 = alloca ptr, align 8
  %4 = alloca i64, align 8
  %5 = alloca i64, align 8
  store ptr %0, ptr %3, align 8, !tbaa !23
  store i64 %1, ptr %4, align 8, !tbaa !25
  call void @llvm.lifetime.start.p0(i64 8, ptr %5) #9
  %6 = load ptr, ptr %3, align 8, !tbaa !23
  %7 = getelementptr inbounds nuw %struct._typeobject, ptr %6, i32 0, i32 19
  %8 = load i64, ptr %7, align 8, !tbaa !136
  store i64 %8, ptr %5, align 8, !tbaa !25
  %9 = load i64, ptr %5, align 8, !tbaa !25
  %10 = load i64, ptr %4, align 8, !tbaa !25
  %11 = and i64 %9, %10
  %12 = icmp ne i64 %11, 0
  %13 = zext i1 %12 to i32
  call void @llvm.lifetime.end.p0(i64 8, ptr %5) #9
  ret i32 %13
}

; Function Attrs: inlinehint nounwind uwtable
define internal ptr @_Py_TYPE(ptr noundef %0) #1 {
  %2 = alloca ptr, align 8
  store ptr %0, ptr %2, align 8, !tbaa !4
  %3 = load ptr, ptr %2, align 8, !tbaa !4
  %4 = getelementptr inbounds nuw %struct._object, ptr %3, i32 0, i32 1
  %5 = load ptr, ptr %4, align 8, !tbaa !27
  ret ptr %5
}

; Function Attrs: inlinehint nounwind uwtable
define internal i64 @PyDict_GET_SIZE(ptr noundef %0) #1 {
  %2 = alloca ptr, align 8
  %3 = alloca ptr, align 8
  store ptr %0, ptr %2, align 8, !tbaa !4
  call void @llvm.lifetime.start.p0(i64 8, ptr %3) #9
  %4 = load ptr, ptr %2, align 8, !tbaa !4
  store ptr %4, ptr %3, align 8, !tbaa !9
  %5 = load ptr, ptr %3, align 8, !tbaa !9
  %6 = getelementptr inbounds nuw %struct.PyDictObject, ptr %5, i32 0, i32 1
  %7 = load i64, ptr %6, align 8, !tbaa !237
  call void @llvm.lifetime.end.p0(i64 8, ptr %3) #9
  ret i64 %7
}

; Function Attrs: inlinehint nounwind uwtable
define internal i64 @PyTuple_GET_SIZE(ptr noundef %0) #1 {
  %2 = alloca ptr, align 8
  %3 = alloca ptr, align 8
  store ptr %0, ptr %2, align 8, !tbaa !4
  call void @llvm.lifetime.start.p0(i64 8, ptr %3) #9
  %4 = load ptr, ptr %2, align 8, !tbaa !4
  store ptr %4, ptr %3, align 8, !tbaa !9
  %5 = load ptr, ptr %3, align 8, !tbaa !9
  %6 = call i64 @Py_SIZE(ptr noundef %5)
  call void @llvm.lifetime.end.p0(i64 8, ptr %3) #9
  ret i64 %6
}

; Function Attrs: nounwind uwtable
define internal i32 @module___init__(ptr noundef %0, ptr noundef %1, ptr noundef %2) #0 {
  %4 = alloca ptr, align 8
  %5 = alloca ptr, align 8
  %6 = alloca ptr, align 8
  %7 = alloca i32, align 4
  %8 = alloca [2 x ptr], align 16
  %9 = alloca ptr, align 8
  %10 = alloca i64, align 8
  %11 = alloca i64, align 8
  %12 = alloca ptr, align 8
  %13 = alloca ptr, align 8
  store ptr %0, ptr %4, align 8, !tbaa !4
  store ptr %1, ptr %5, align 8, !tbaa !4
  store ptr %2, ptr %6, align 8, !tbaa !4
  call void @llvm.lifetime.start.p0(i64 4, ptr %7) #9
  store i32 -1, ptr %7, align 4, !tbaa !35
  call void @llvm.lifetime.start.p0(i64 16, ptr %8) #9
  call void @llvm.lifetime.start.p0(i64 8, ptr %9) #9
  call void @llvm.lifetime.start.p0(i64 8, ptr %10) #9
  %14 = load ptr, ptr %5, align 8, !tbaa !4
  %15 = call i64 @PyTuple_GET_SIZE(ptr noundef %14)
  store i64 %15, ptr %10, align 8, !tbaa !25
  call void @llvm.lifetime.start.p0(i64 8, ptr %11) #9
  %16 = load i64, ptr %10, align 8, !tbaa !25
  %17 = load ptr, ptr %6, align 8, !tbaa !4
  %18 = icmp ne ptr %17, null
  br i1 %18, label %19, label %22

19:                                               ; preds = %3
  %20 = load ptr, ptr %6, align 8, !tbaa !4
  %21 = call i64 @PyDict_GET_SIZE(ptr noundef %20)
  br label %23

22:                                               ; preds = %3
  br label %23

23:                                               ; preds = %22, %19
  %24 = phi i64 [ %21, %19 ], [ 0, %22 ]
  %25 = add i64 %16, %24
  %26 = sub i64 %25, 1
  store i64 %26, ptr %11, align 8, !tbaa !25
  call void @llvm.lifetime.start.p0(i64 8, ptr %12) #9
  call void @llvm.lifetime.start.p0(i64 8, ptr %13) #9
  store ptr @_Py_NoneStruct, ptr %13, align 8, !tbaa !4
  %27 = load ptr, ptr %6, align 8, !tbaa !4
  %28 = icmp eq ptr %27, null
  br i1 %28, label %29, label %44

29:                                               ; preds = %23
  %30 = load i64, ptr %10, align 8, !tbaa !25
  %31 = icmp sle i64 1, %30
  br i1 %31, label %32, label %44

32:                                               ; preds = %29
  %33 = load i64, ptr %10, align 8, !tbaa !25
  %34 = icmp sle i64 %33, 2
  br i1 %34, label %35, label %44

35:                                               ; preds = %32
  %36 = load ptr, ptr %5, align 8, !tbaa !4
  %37 = getelementptr inbounds nuw %struct.PyTupleObject, ptr %36, i32 0, i32 1
  %38 = getelementptr inbounds [1 x ptr], ptr %37, i64 0, i64 0
  %39 = icmp ne ptr %38, null
  br i1 %39, label %40, label %44

40:                                               ; preds = %35
  %41 = load ptr, ptr %5, align 8, !tbaa !4
  %42 = getelementptr inbounds nuw %struct.PyTupleObject, ptr %41, i32 0, i32 1
  %43 = getelementptr inbounds [1 x ptr], ptr %42, i64 0, i64 0
  br label %52

44:                                               ; preds = %35, %32, %29, %23
  %45 = load ptr, ptr %5, align 8, !tbaa !4
  %46 = getelementptr inbounds nuw %struct.PyTupleObject, ptr %45, i32 0, i32 1
  %47 = getelementptr inbounds [1 x ptr], ptr %46, i64 0, i64 0
  %48 = load i64, ptr %10, align 8, !tbaa !25
  %49 = load ptr, ptr %6, align 8, !tbaa !4
  %50 = getelementptr inbounds [2 x ptr], ptr %8, i64 0, i64 0
  %51 = call ptr @_PyArg_UnpackKeywords(ptr noundef %47, i64 noundef %48, ptr noundef %49, ptr noundef null, ptr noundef @module___init__._parser, i32 noundef 1, i32 noundef 2, i32 noundef 0, i32 noundef 0, ptr noundef %50)
  br label %52

52:                                               ; preds = %44, %40
  %53 = phi ptr [ %43, %40 ], [ %51, %44 ]
  store ptr %53, ptr %9, align 8, !tbaa !32
  %54 = load ptr, ptr %9, align 8, !tbaa !32
  %55 = icmp ne ptr %54, null
  br i1 %55, label %57, label %56

56:                                               ; preds = %52
  br label %84

57:                                               ; preds = %52
  %58 = load ptr, ptr %9, align 8, !tbaa !32
  %59 = getelementptr ptr, ptr %58, i64 0
  %60 = load ptr, ptr %59, align 8, !tbaa !4
  %61 = call ptr @_Py_TYPE(ptr noundef %60)
  %62 = call i32 @PyType_HasFeature(ptr noundef %61, i64 noundef 268435456)
  %63 = icmp ne i32 %62, 0
  br i1 %63, label %68, label %64

64:                                               ; preds = %57
  %65 = load ptr, ptr %9, align 8, !tbaa !32
  %66 = getelementptr ptr, ptr %65, i64 0
  %67 = load ptr, ptr %66, align 8, !tbaa !4
  call void @_PyArg_BadArgument(ptr noundef @.str.32, ptr noundef @.str.52, ptr noundef @.str.53, ptr noundef %67)
  br label %84

68:                                               ; preds = %57
  %69 = load ptr, ptr %9, align 8, !tbaa !32
  %70 = getelementptr ptr, ptr %69, i64 0
  %71 = load ptr, ptr %70, align 8, !tbaa !4
  store ptr %71, ptr %12, align 8, !tbaa !4
  %72 = load i64, ptr %11, align 8, !tbaa !25
  %73 = icmp ne i64 %72, 0
  br i1 %73, label %75, label %74

74:                                               ; preds = %68
  br label %79

75:                                               ; preds = %68
  %76 = load ptr, ptr %9, align 8, !tbaa !32
  %77 = getelementptr ptr, ptr %76, i64 1
  %78 = load ptr, ptr %77, align 8, !tbaa !4
  store ptr %78, ptr %13, align 8, !tbaa !4
  br label %79

79:                                               ; preds = %75, %74
  %80 = load ptr, ptr %4, align 8, !tbaa !4
  %81 = load ptr, ptr %12, align 8, !tbaa !4
  %82 = load ptr, ptr %13, align 8, !tbaa !4
  %83 = call i32 @module___init___impl(ptr noundef %80, ptr noundef %81, ptr noundef %82)
  store i32 %83, ptr %7, align 4, !tbaa !35
  br label %84

84:                                               ; preds = %79, %64, %56
  %85 = load i32, ptr %7, align 4, !tbaa !35
  call void @llvm.lifetime.end.p0(i64 8, ptr %13) #9
  call void @llvm.lifetime.end.p0(i64 8, ptr %12) #9
  call void @llvm.lifetime.end.p0(i64 8, ptr %11) #9
  call void @llvm.lifetime.end.p0(i64 8, ptr %10) #9
  call void @llvm.lifetime.end.p0(i64 8, ptr %9) #9
  call void @llvm.lifetime.end.p0(i64 16, ptr %8) #9
  call void @llvm.lifetime.end.p0(i64 4, ptr %7) #9
  ret i32 %85
}