; Function Attrs: nounwind uwtable
define internal range(i32 -1, 1) i32 @module___init__(ptr noundef captures(none) %0, ptr noundef %1, ptr noundef %2) #0 {
  %4 = alloca [2 x ptr], align 16
  call void @llvm.lifetime.start.p0(i64 16, ptr nonnull %4) #8
  %5 = getelementptr i8, ptr %1, i64 16
  %.val34 = load i64, ptr %5, align 8, !tbaa !224
  %.not = icmp eq ptr %2, null
  br i1 %.not, label %9, label %.thread

.thread:                                          ; preds = %3
  %6 = getelementptr i8, ptr %2, i64 16
  %.val35 = load i64, ptr %6, align 8, !tbaa !225
  %7 = add i64 %.val35, %.val34
  %8 = getelementptr inbounds nuw i8, ptr %1, i64 24
  br label %13

9:                                                ; preds = %3
  %10 = add i64 %.val34, -1
  %11 = icmp ult i64 %10, 2
  %12 = getelementptr inbounds nuw i8, ptr %1, i64 24
  br i1 %11, label %.thread38, label %13

13:                                               ; preds = %9, %.thread
  %14 = phi ptr [ %8, %.thread ], [ %12, %9 ]
  %15 = phi i64 [ %7, %.thread ], [ %.val34, %9 ]
  %16 = call ptr @_PyArg_UnpackKeywords(ptr noundef nonnull %14, i64 noundef %.val34, ptr noundef %2, ptr noundef null, ptr noundef nonnull @module___init__._parser, i32 noundef 1, i32 noundef 2, i32 noundef 0, i32 noundef 0, ptr noundef nonnull %4) #8
  %.not31 = icmp eq ptr %16, null
  br i1 %.not31, label %32, label %.thread38

.thread38:                                        ; preds = %9, %13
  %17 = phi ptr [ %16, %13 ], [ %12, %9 ]
  %18 = phi i64 [ %15, %13 ], [ %.val34, %9 ]
  %19 = load ptr, ptr %17, align 8, !tbaa !24
  %20 = getelementptr i8, ptr %19, i64 8
  %.val = load ptr, ptr %20, align 8, !tbaa !4
  %21 = getelementptr i8, ptr %.val, i64 168
  %.val36 = load i64, ptr %21, align 8, !tbaa !209
  %22 = and i64 %.val36, 268435456
  %.not32 = icmp eq i64 %22, 0
  br i1 %.not32, label %23, label %24

23:                                               ; preds = %.thread38
  call void @_PyArg_BadArgument(ptr noundef nonnull @.str.32, ptr noundef nonnull @.str.52, ptr noundef nonnull @.str.53, ptr noundef nonnull %19) #8
  br label %32

24:                                               ; preds = %.thread38
  %.not33 = icmp eq i64 %18, 1
  br i1 %.not33, label %28, label %25

25:                                               ; preds = %24
  %26 = getelementptr i8, ptr %17, i64 8
  %27 = load ptr, ptr %26, align 8, !tbaa !24
  br label %28

28:                                               ; preds = %24, %25
  %.0 = phi ptr [ %27, %25 ], [ @_Py_NoneStruct, %24 ]
  %29 = getelementptr inbounds nuw i8, ptr %0, i64 16
  %30 = load ptr, ptr %29, align 8, !tbaa !23
  %31 = call fastcc range(i32 -1, 1) i32 @module_init_dict(ptr noundef %0, ptr noundef %30, ptr noundef nonnull %19, ptr noundef %.0)
  br label %32

32:                                               ; preds = %13, %28, %23
  %.028 = phi i32 [ %31, %28 ], [ -1, %23 ], [ -1, %13 ]
  call void @llvm.lifetime.end.p0(i64 16, ptr nonnull %4) #8
  ret i32 %.028
}